target datalayout = "e-m:e-p270:32:32-p271:32:32-p272:64:64-i64:64-i128:128-f80:128-n8:16:32:64-S128"
target triple = "x86_64-pc-linux-gnu"

%struct.Gia_Man_t_ = type { ptr, ptr, i32, i32, i32, i32, ptr, ptr, i32, i32, i32, ptr, ptr, %struct.Vec_Int_t_, %struct.Vec_Int_t_, i32, i32, i32, %struct.Vec_Int_t_, ptr, ptr, ptr, i32, i32, i32, i32, ptr, ptr, ptr, ptr, ptr, i32, i32, ptr, i32, ptr, ptr, ptr, ptr, ptr, ptr, ptr, ptr, ptr, ptr, ptr, ptr, ptr, ptr, ptr, ptr, ptr, ptr, %struct.Vec_Int_t_, %struct.Vec_Int_t_, ptr, ptr, ptr, ptr, ptr, ptr, ptr, ptr, ptr, ptr, ptr, ptr, ptr, ptr, ptr, ptr, ptr, ptr, ptr, ptr, ptr, i32, float, float, ptr, ptr, i32, ptr, ptr, ptr, ptr, ptr, ptr, ptr, ptr, ptr, ptr, ptr, ptr, ptr, ptr, ptr, i64, i64, ptr, ptr, i32, i32, i32, i32, i32, i32, i32, i32, i32, i32, i32, i32, ptr, ptr, ptr, ptr, ptr, ptr, ptr, ptr, i32, i32, i32, ptr, i32, i32, ptr, ptr, ptr, ptr, ptr, ptr, i32, i32, ptr, %struct.Vec_Int_t_, %struct.Vec_Int_t_, %struct.Vec_Int_t_, ptr, ptr, ptr, i32, i32, i32, i32, ptr, ptr, ptr, ptr, ptr }
%struct.Vec_Int_t_ = type { i32, i32, ptr }
%struct.Gia_Obj_t_ = type <{ i64, i32 }>
%struct.Vec_Bit_t_ = type { i32, i32, ptr }

; Function Attrs: inlinehint nounwind uwtable
define internal ptr @Vec_BitAlloc(i32 noundef %0) #2 {
  %2 = alloca i32, align 4
  %3 = alloca ptr, align 8
  store i32 %0, ptr %2, align 4, !tbaa !8
  call void @llvm.lifetime.start.p0(i64 8, ptr %3) #12
  %4 = load i32, ptr %2, align 4, !tbaa !8
  %5 = ashr i32 %4, 5
  %6 = load i32, ptr %2, align 4, !tbaa !8
  %7 = and i32 %6, 31
  %8 = icmp sgt i32 %7, 0
  %9 = zext i1 %8 to i32
  %10 = add nsw i32 %5, %9
  store i32 %10, ptr %2, align 4, !tbaa !8
  %11 = call noalias ptr @malloc(i64 noundef 16) #13
  store ptr %11, ptr %3, align 8, !tbaa !58
  %12 = load ptr, ptr %3, align 8, !tbaa !58
  %13 = getelementptr inbounds nuw %struct.Vec_Bit_t_, ptr %12, i32 0, i32 1
  store i32 0, ptr %13, align 4, !tbaa !60
  %14 = load i32, ptr %2, align 4, !tbaa !8
  %15 = mul nsw i32 %14, 32
  %16 = load ptr, ptr %3, align 8, !tbaa !58
  %17 = getelementptr inbounds nuw %struct.Vec_Bit_t_, ptr %16, i32 0, i32 0
  store i32 %15, ptr %17, align 8, !tbaa !182
  %18 = load i32, ptr %2, align 4, !tbaa !8
  %19 = icmp ne i32 %18, 0
  br i1 %19, label %20, label %25

20:                                               ; preds = %1
  %21 = load i32, ptr %2, align 4, !tbaa !8
  %22 = sext i32 %21 to i64
  %23 = mul i64 4, %22
  %24 = call noalias ptr @malloc(i64 noundef %23) #13
  br label %26

25:                                               ; preds = %1
  br label %26

26:                                               ; preds = %25, %20
  %27 = phi ptr [ %24, %20 ], [ null, %25 ]
  %28 = load ptr, ptr %3, align 8, !tbaa !58
  %29 = getelementptr inbounds nuw %struct.Vec_Bit_t_, ptr %28, i32 0, i32 2
  store ptr %27, ptr %29, align 8, !tbaa !62
  %30 = load ptr, ptr %3, align 8, !tbaa !58
  call void @llvm.lifetime.end.p0(i64 8, ptr %3) #12
  ret ptr %30
}

; Function Attrs: inlinehint nounwind uwtable
define internal void @Vec_BitWriteEntry(ptr noundef %0, i32 noundef %1, i32 noundef %2) #2 {
  %4 = alloca ptr, align 8
  %5 = alloca i32, align 4
  %6 = alloca i32, align 4
  store ptr %0, ptr %4, align 8, !tbaa !58
  store i32 %1, ptr %5, align 4, !tbaa !8
  store i32 %2, ptr %6, align 4, !tbaa !8
  %7 = load i32, ptr %6, align 4, !tbaa !8
  %8 = icmp eq i32 %7, 1
  br i1 %8, label %9, label %22

9:                                                ; preds = %3
  %10 = load i32, ptr %5, align 4, !tbaa !8
  %11 = and i32 %10, 31
  %12 = shl i32 1, %11
  %13 = load ptr, ptr %4, align 8, !tbaa !58
  %14 = getelementptr inbounds nuw %struct.Vec_Bit_t_, ptr %13, i32 0, i32 2
  %15 = load ptr, ptr %14, align 8, !tbaa !62
  %16 = load i32, ptr %5, align 4, !tbaa !8
  %17 = ashr i32 %16, 5
  %18 = sext i32 %17 to i64
  %19 = getelementptr inbounds i32, ptr %15, i64 %18
  %20 = load i32, ptr %19, align 4, !tbaa !8
  %21 = or i32 %20, %12
  store i32 %21, ptr %19, align 4, !tbaa !8
  br label %41

22:                                               ; preds = %3
  %23 = load i32, ptr %6, align 4, !tbaa !8
  %24 = icmp eq i32 %23, 0
  br i1 %24, label %25, label %39

25:                                               ; preds = %22
  %26 = load i32, ptr %5, align 4, !tbaa !8
  %27 = and i32 %26, 31
  %28 = shl i32 1, %27
  %29 = xor i32 %28, -1
  %30 = load ptr, ptr %4, align 8, !tbaa !58
  %31 = getelementptr inbounds nuw %struct.Vec_Bit_t_, ptr %30, i32 0, i32 2
  %32 = load ptr, ptr %31, align 8, !tbaa !62
  %33 = load i32, ptr %5, align 4, !tbaa !8
  %34 = ashr i32 %33, 5
  %35 = sext i32 %34 to i64
  %36 = getelementptr inbounds i32, ptr %32, i64 %35
  %37 = load i32, ptr %36, align 4, !tbaa !8
  %38 = and i32 %37, %29
  store i32 %38, ptr %36, align 4, !tbaa !8
  br label %40

39:                                               ; preds = %22
  br label %40

40:                                               ; preds = %39, %25
  br label %41

41:                                               ; preds = %40, %9
  ret void
}

; Function Attrs: inlinehint nounwind uwtable
define internal i32 @Gia_ObjIsAnd(ptr noundef %0) #2 {
  %2 = alloca ptr, align 8
  store ptr %0, ptr %2, align 8, !tbaa !12
  %3 = load ptr, ptr %2, align 8, !tbaa !12
  %4 = load i64, ptr %3, align 4
  %5 = lshr i64 %4, 31
  %6 = and i64 %5, 1
  %7 = trunc i64 %6 to i32
  %8 = icmp ne i32 %7, 0
  br i1 %8, label %15, label %9

9:                                                ; preds = %1
  %10 = load ptr, ptr %2, align 8, !tbaa !12
  %11 = load i64, ptr %10, align 4
  %12 = and i64 %11, 536870911
  %13 = trunc i64 %12 to i32
  %14 = icmp ne i32 %13, 536870911
  br label %15

15:                                               ; preds = %9, %1
  %16 = phi i1 [ false, %1 ], [ %14, %9 ]
  %17 = zext i1 %16 to i32
  ret i32 %17
}

; Function Attrs: inlinehint nounwind uwtable
define internal ptr @Gia_ManObj(ptr noundef %0, i32 noundef %1) #2 {
  %3 = alloca ptr, align 8
  %4 = alloca i32, align 4
  store ptr %0, ptr %3, align 8, !tbaa !3
  store i32 %1, ptr %4, align 4, !tbaa !8
  %5 = load ptr, ptr %3, align 8, !tbaa !3
  %6 = getelementptr inbounds nuw %struct.Gia_Man_t_, ptr %5, i32 0, i32 6
  %7 = load ptr, ptr %6, align 8, !tbaa !20
  %8 = load i32, ptr %4, align 4, !tbaa !8
  %9 = sext i32 %8 to i64
  %10 = getelementptr inbounds %struct.Gia_Obj_t_, ptr %7, i64 %9
  ret ptr %10
}

; Function Attrs: inlinehint nounwind uwtable
define internal ptr @Vec_BitStart(i32 noundef %0) #2 {
  %2 = alloca i32, align 4
  %3 = alloca ptr, align 8
  store i32 %0, ptr %2, align 4, !tbaa !8
  call void @llvm.lifetime.start.p0(i64 8, ptr %3) #12
  %4 = load i32, ptr %2, align 4, !tbaa !8
  %5 = ashr i32 %4, 5
  %6 = load i32, ptr %2, align 4, !tbaa !8
  %7 = and i32 %6, 31
  %8 = icmp sgt i32 %7, 0
  %9 = zext i1 %8 to i32
  %10 = add nsw i32 %5, %9
  store i32 %10, ptr %2, align 4, !tbaa !8
  %11 = load i32, ptr %2, align 4, !tbaa !8
  %12 = mul nsw i32 %11, 32
  %13 = call ptr @Vec_BitAlloc(i32 noundef %12)
  store ptr %13, ptr %3, align 8, !tbaa !58
  %14 = load i32, ptr %2, align 4, !tbaa !8
  %15 = mul nsw i32 %14, 32
  %16 = load ptr, ptr %3, align 8, !tbaa !58
  %17 = getelementptr inbounds nuw %struct.Vec_Bit_t_, ptr %16, i32 0, i32 1
  store i32 %15, ptr %17, align 4, !tbaa !60
  %18 = load ptr, ptr %3, align 8, !tbaa !58
  %19 = getelementptr inbounds nuw %struct.Vec_Bit_t_, ptr %18, i32 0, i32 2
  %20 = load ptr, ptr %19, align 8, !tbaa !62
  %21 = load i32, ptr %2, align 4, !tbaa !8
  %22 = sext i32 %21 to i64
  %23 = mul i64 4, %22
  call void @llvm.memset.p0.i64(ptr align 4 %20, i8 0, i64 %23, i1 false)
  %24 = load ptr, ptr %3, align 8, !tbaa !58
  call void @llvm.lifetime.end.p0(i64 8, ptr %3) #12
  ret ptr %24
}

; Function Attrs: inlinehint nounwind uwtable
define internal i32 @Gia_ManObjNum(ptr noundef %0) #2 {
  %2 = alloca ptr, align 8
  store ptr %0, ptr %2, align 8, !tbaa !3
  %3 = load ptr, ptr %2, align 8, !tbaa !3
  %4 = getelementptr inbounds nuw %struct.Gia_Man_t_, ptr %3, i32 0, i32 4
  %5 = load i32, ptr %4, align 8, !tbaa !49
  ret i32 %5
}

; Function Attrs: nounwind uwtable
define ptr @Sle_ManInternalNodeMask(ptr noundef %0) #0 {
  %2 = alloca ptr, align 8
  %3 = alloca i32, align 4
  %4 = alloca ptr, align 8
  store ptr %0, ptr %2, align 8, !tbaa !3
  call void @llvm.lifetime.start.p0(i64 4, ptr %3) #12
  call void @llvm.lifetime.start.p0(i64 8, ptr %4) #12
  %5 = load ptr, ptr %2, align 8, !tbaa !3
  %6 = call i32 @Gia_ManObjNum(ptr noundef %5)
  %7 = call ptr @Vec_BitStart(i32 noundef %6)
  store ptr %7, ptr %4, align 8, !tbaa !58
  store i32 0, ptr %3, align 4, !tbaa !8
  br label %8

8:                                                ; preds = %25, %1
  %9 = load i32, ptr %3, align 4, !tbaa !8
  %10 = load ptr, ptr %2, align 8, !tbaa !3
  %11 = getelementptr inbounds nuw %struct.Gia_Man_t_, ptr %10, i32 0, i32 4
  %12 = load i32, ptr %11, align 8, !tbaa !49
  %13 = icmp slt i32 %9, %12
  br i1 %13, label %14, label %28

14:                                               ; preds = %8
  %15 = load ptr, ptr %2, align 8, !tbaa !3
  %16 = load i32, ptr %3, align 4, !tbaa !8
  %17 = call ptr @Gia_ManObj(ptr noundef %15, i32 noundef %16)
  %18 = call i32 @Gia_ObjIsAnd(ptr noundef %17)
  %19 = icmp ne i32 %18, 0
  br i1 %19, label %21, label %20

20:                                               ; preds = %14
  br label %24

21:                                               ; preds = %14
  %22 = load ptr, ptr %4, align 8, !tbaa !58
  %23 = load i32, ptr %3, align 4, !tbaa !8
  call void @Vec_BitWriteEntry(ptr noundef %22, i32 noundef %23, i32 noundef 1)
  br label %24

24:                                               ; preds = %21, %20
  br label %25

25:                                               ; preds = %24
  %26 = load i32, ptr %3, align 4, !tbaa !8
  %27 = add nsw i32 %26, 1
  store i32 %27, ptr %3, align 4, !tbaa !8
  br label %8, !llvm.loop !59

28:                                               ; preds = %8
  %29 = load ptr, ptr %4, align 8, !tbaa !58
  call void @llvm.lifetime.end.p0(i64 8, ptr %4) #12
  call void @llvm.lifetime.end.p0(i64 4, ptr %3) #12
  ret ptr %29
}