; Function Attrs: nofree nounwind uwtable
define noalias noundef ptr @Sle_ManInternalNodeMask(ptr noundef readonly captures(none) %0) local_unnamed_addr #5 {
  %2 = getelementptr i8, ptr %0, i64 24
  %.val8 = load i32, ptr %2, align 8, !tbaa !44
  %3 = ashr i32 %.val8, 5
  %4 = and i32 %.val8, 31
  %5 = icmp ne i32 %4, 0
  %6 = zext i1 %5 to i32
  %7 = add nsw i32 %3, %6
  %8 = tail call noalias dereferenceable_or_null(16) ptr @malloc(i64 noundef 16) #24
  %9 = shl nsw i32 %7, 5
  store i32 %9, ptr %8, align 8, !tbaa !55
  %.not.i.i = icmp eq i32 %7, 0
  br i1 %.not.i.i, label %Vec_BitStart.exit, label %10

10:                                               ; preds = %1
  %11 = sext i32 %7 to i64
  %12 = shl nsw i64 %11, 2
  %13 = tail call noalias ptr @malloc(i64 noundef %12) #24
  br label %Vec_BitStart.exit

Vec_BitStart.exit:                                ; preds = %1, %10
  %.pre-phi8.i = phi i64 [ %12, %10 ], [ 0, %1 ]
  %14 = phi ptr [ %13, %10 ], [ null, %1 ]
  %15 = getelementptr inbounds nuw i8, ptr %8, i64 4
  %16 = getelementptr inbounds nuw i8, ptr %8, i64 8
  store ptr %14, ptr %16, align 8, !tbaa !57
  store i32 %9, ptr %15, align 4, !tbaa !58
  tail call void @llvm.memset.p0.i64(ptr align 4 %14, i8 0, i64 %.pre-phi8.i, i1 false)
  %17 = icmp sgt i32 %.val8, 0
  br i1 %17, label %.lr.ph, label %._crit_edge

.lr.ph:                                           ; preds = %Vec_BitStart.exit
  %18 = getelementptr i8, ptr %0, i64 32
  %.val = load ptr, ptr %18, align 8, !tbaa !3
  %wide.trip.count = zext nneg i32 %.val8 to i64
  br label %19

19:                                               ; preds = %.lr.ph, %33
  %indvars.iv = phi i64 [ 0, %.lr.ph ], [ %indvars.iv.next, %33 ]
  %20 = getelementptr inbounds nuw %struct.Gia_Obj_t_, ptr %.val, i64 %indvars.iv
  %.val9 = load i64, ptr %20, align 4
  %21 = and i64 %.val9, 2147483648
  %.not.i = icmp ne i64 %21, 0
  %22 = and i64 %.val9, 536870911
  %23 = icmp eq i64 %22, 536870911
  %narrow.i.not = or i1 %.not.i, %23
  br i1 %narrow.i.not, label %33, label %24

24:                                               ; preds = %19
  %25 = trunc nuw nsw i64 %indvars.iv to i32
  %26 = and i32 %25, 31
  %27 = shl nuw i32 1, %26
  %28 = lshr i64 %indvars.iv, 5
  %29 = and i64 %28, 134217727
  %30 = getelementptr inbounds nuw i32, ptr %14, i64 %29
  %31 = load i32, ptr %30, align 4, !tbaa !29
  %32 = or i32 %31, %27
  store i32 %32, ptr %30, align 4, !tbaa !29
  br label %33

33:                                               ; preds = %24, %19
  %indvars.iv.next = add nuw nsw i64 %indvars.iv, 1
  %exitcond.not = icmp eq i64 %indvars.iv.next, %wide.trip.count
  br i1 %exitcond.not, label %._crit_edge, label %19, !llvm.loop !59

._crit_edge:                                      ; preds = %33, %Vec_BitStart.exit
  ret ptr %8
}